; Function Attrs: mustprogress nofree norecurse nosync nounwind willreturn memory(argmem: readwrite) uwtable
define hidden void @_ZN6Assimp7OpenGEX15OpenGEXImporter14clearNodeStackEv(ptr nocapture noundef nonnull align 8 dereferenceable(776) %this) local_unnamed_addr #16 align 2 personality ptr @__gxx_personality_v0 {
entry:
  %m_nodeStack = getelementptr inbounds i8, ptr %this, i64 728
  %0 = load ptr, ptr %m_nodeStack, align 8
  %_M_finish.i.i = getelementptr inbounds i8, ptr %this, i64 736
  %1 = load ptr, ptr %_M_finish.i.i, align 8
  %tobool.not.i.i = icmp eq ptr %1, %0
  br i1 %tobool.not.i.i, label %_ZNSt6vectorIP6aiNodeSaIS1_EE5clearEv.exit, label %invoke.cont.i.i

invoke.cont.i.i:                                  ; preds = %entry
  store ptr %0, ptr %_M_finish.i.i, align 8
  br label %_ZNSt6vectorIP6aiNodeSaIS1_EE5clearEv.exit

_ZNSt6vectorIP6aiNodeSaIS1_EE5clearEv.exit:       ; preds = %entry, %invoke.cont.i.i
  ret void
}